target datalayout = "e-m:e-p270:32:32-p271:32:32-p272:64:64-i64:64-i128:128-f80:128-n8:16:32:64-S128"
target triple = "x86_64-pc-linux-gnu"

%struct.dbd_cluster_tres_msg = type { ptr, i64, ptr }

; Function Attrs: nounwind uwtable
define internal void @_pack_cluster_tres_msg(ptr noundef %0, i16 noundef zeroext %1, ptr noundef %2) #0 {
  %4 = alloca ptr, align 8
  %5 = alloca i16, align 2
  %6 = alloca ptr, align 8
  %7 = alloca i32, align 4
  %8 = alloca i32, align 4
  store ptr %0, ptr %4, align 8
  store i16 %1, ptr %5, align 2
  store ptr %2, ptr %6, align 8
  %9 = load i16, ptr %5, align 2
  %10 = zext i16 %9 to i32
  %11 = icmp sge i32 %10, 10240
  br i1 %11, label %12, label %55

12:                                               ; preds = %3
  br label %13

13:                                               ; preds = %12
  call void @llvm.lifetime.start.p0(i64 4, ptr %7) #5
  store i32 0, ptr %7, align 4
  %14 = load ptr, ptr %4, align 8
  %15 = getelementptr inbounds nuw %struct.dbd_cluster_tres_msg, ptr %14, i32 0, i32 0
  %16 = load ptr, ptr %15, align 8
  %17 = icmp ne ptr %16, null
  br i1 %17, label %18, label %25

18:                                               ; preds = %13
  %19 = load ptr, ptr %4, align 8
  %20 = getelementptr inbounds nuw %struct.dbd_cluster_tres_msg, ptr %19, i32 0, i32 0
  %21 = load ptr, ptr %20, align 8
  %22 = call i64 @strlen(ptr noundef %21) #6
  %23 = trunc i64 %22 to i32
  %24 = add i32 %23, 1
  store i32 %24, ptr %7, align 4
  br label %25

25:                                               ; preds = %18, %13
  %26 = load ptr, ptr %4, align 8
  %27 = getelementptr inbounds nuw %struct.dbd_cluster_tres_msg, ptr %26, i32 0, i32 0
  %28 = load ptr, ptr %27, align 8
  %29 = load i32, ptr %7, align 4
  %30 = load ptr, ptr %6, align 8
  call void @packmem(ptr noundef %28, i32 noundef %29, ptr noundef %30)
  call void @llvm.lifetime.end.p0(i64 4, ptr %7) #5
  br label %31

31:                                               ; preds = %25
  %32 = load ptr, ptr %4, align 8
  %33 = getelementptr inbounds nuw %struct.dbd_cluster_tres_msg, ptr %32, i32 0, i32 1
  %34 = load i64, ptr %33, align 8
  %35 = load ptr, ptr %6, align 8
  call void @pack_time(i64 noundef %34, ptr noundef %35)
  br label %36

36:                                               ; preds = %31
  call void @llvm.lifetime.start.p0(i64 4, ptr %8) #5
  store i32 0, ptr %8, align 4
  %37 = load ptr, ptr %4, align 8
  %38 = getelementptr inbounds nuw %struct.dbd_cluster_tres_msg, ptr %37, i32 0, i32 2
  %39 = load ptr, ptr %38, align 8
  %40 = icmp ne ptr %39, null
  br i1 %40, label %41, label %48

41:                                               ; preds = %36
  %42 = load ptr, ptr %4, align 8
  %43 = getelementptr inbounds nuw %struct.dbd_cluster_tres_msg, ptr %42, i32 0, i32 2
  %44 = load ptr, ptr %43, align 8
  %45 = call i64 @strlen(ptr noundef %44) #6
  %46 = trunc i64 %45 to i32
  %47 = add i32 %46, 1
  store i32 %47, ptr %8, align 4
  br label %48

48:                                               ; preds = %41, %36
  %49 = load ptr, ptr %4, align 8
  %50 = getelementptr inbounds nuw %struct.dbd_cluster_tres_msg, ptr %49, i32 0, i32 2
  %51 = load ptr, ptr %50, align 8
  %52 = load i32, ptr %8, align 4
  %53 = load ptr, ptr %6, align 8
  call void @packmem(ptr noundef %51, i32 noundef %52, ptr noundef %53)
  call void @llvm.lifetime.end.p0(i64 4, ptr %8) #5
  br label %54

54:                                               ; preds = %48
  br label %55

55:                                               ; preds = %54, %3
  ret void
}