; Function Attrs: nounwind uwtable
define internal fastcc void @_pack_cluster_tres_msg(ptr noundef readonly captures(none) %0, i16 noundef zeroext %1, ptr noundef %2) unnamed_addr #0 {
  %4 = icmp ugt i16 %1, 10239
  br i1 %4, label %5, label %21

5:                                                ; preds = %3
  %6 = load ptr, ptr %0, align 8
  %.not = icmp eq ptr %6, null
  br i1 %.not, label %11, label %7

7:                                                ; preds = %5
  %8 = tail call i64 @strlen(ptr noundef nonnull dereferenceable(1) %6) #7
  %9 = trunc i64 %8 to i32
  %10 = add i32 %9, 1
  br label %11

11:                                               ; preds = %7, %5
  %.012 = phi i32 [ %10, %7 ], [ 0, %5 ]
  tail call void @packmem(ptr noundef %6, i32 noundef %.012, ptr noundef %2) #5
  %12 = getelementptr inbounds nuw i8, ptr %0, i64 8
  %13 = load i64, ptr %12, align 8
  tail call void @pack_time(i64 noundef %13, ptr noundef %2) #5
  %14 = getelementptr inbounds nuw i8, ptr %0, i64 16
  %15 = load ptr, ptr %14, align 8
  %.not15 = icmp eq ptr %15, null
  br i1 %.not15, label %20, label %16

16:                                               ; preds = %11
  %17 = tail call i64 @strlen(ptr noundef nonnull dereferenceable(1) %15) #7
  %18 = trunc i64 %17 to i32
  %19 = add i32 %18, 1
  br label %20

20:                                               ; preds = %16, %11
  %.0 = phi i32 [ %19, %16 ], [ 0, %11 ]
  tail call void @packmem(ptr noundef %15, i32 noundef %.0, ptr noundef %2) #5
  br label %21

21:                                               ; preds = %20, %3
  ret void
}